; Function Attrs: mustprogress uwtable
define hidden noundef i32 @_ZN6solver16get_consequencesERK10ref_vectorI4expr11ast_managerES5_RS3_(ptr noundef nonnull align 8 dereferenceable(96) %0, ptr noundef nonnull align 8 dereferenceable(16) %1, ptr noundef nonnull align 8 dereferenceable(16) %2, ptr noundef nonnull align 8 dereferenceable(16) %3) unnamed_addr #3 align 2 personality ptr @__gxx_personality_v0 {
  %5 = alloca %"class.check_sat_result::scoped_solver_time", align 8
  call void @llvm.lifetime.start.p0(i64 32, ptr nonnull %5) #25
  store ptr %0, ptr %5, align 8, !tbaa !48
  %6 = getelementptr inbounds nuw i8, ptr %5, i64 8
  %7 = getelementptr inbounds nuw i8, ptr %5, i64 16
  store i64 0, ptr %7, align 8
  %8 = getelementptr inbounds nuw i8, ptr %5, i64 24
  %9 = tail call i64 @_ZNSt6chrono3_V212steady_clock3nowEv() #25
  store i64 %9, ptr %6, align 8, !tbaa !50
  store i8 1, ptr %8, align 8, !tbaa !52
  %10 = getelementptr inbounds nuw i8, ptr %0, i64 64
  store double 0.000000e+00, ptr %10, align 8, !tbaa !57
  %11 = load ptr, ptr %0, align 8, !tbaa !3
  %12 = getelementptr inbounds nuw i8, ptr %11, i64 376
  %13 = load ptr, ptr %12, align 8
  %14 = invoke noundef i32 %13(ptr noundef nonnull align 8 dereferenceable(96) %0, ptr noundef nonnull align 8 dereferenceable(16) %1, ptr noundef nonnull align 8 dereferenceable(16) %2, ptr noundef nonnull align 8 dereferenceable(16) %3)
          to label %_ZN16check_sat_result18scoped_solver_timeD2Ev.exit unwind label %15

15:                                               ; preds = %4
  %16 = landingpad { ptr, i32 }
          cleanup
          catch ptr @_ZTI12z3_exception
  %17 = extractvalue { ptr, i32 } %16, 1
  %18 = tail call i32 @llvm.eh.typeid.for.p0(ptr nonnull @_ZTI12z3_exception) #25
  %19 = icmp eq i32 %17, %18
  br i1 %19, label %20, label %50

20:                                               ; preds = %15
  %21 = extractvalue { ptr, i32 } %16, 0
  %22 = tail call ptr @__cxa_begin_catch(ptr %21) #25
  %23 = load ptr, ptr %1, align 8, !tbaa !27
  %24 = invoke noundef zeroext i1 @_ZN8reslimit3incEv(ptr noundef nonnull align 8 dereferenceable(976) %23)
          to label %_ZN11ast_manager3incEv.exit unwind label %31

_ZN11ast_manager3incEv.exit:                      ; preds = %20
  br i1 %24, label %33, label %25

25:                                               ; preds = %_ZN11ast_manager3incEv.exit
  %26 = load ptr, ptr @_ZN11common_msgs14g_canceled_msgE, align 8, !tbaa !66
  %27 = load ptr, ptr %0, align 8, !tbaa !3
  %28 = getelementptr inbounds nuw i8, ptr %27, i64 56
  %29 = load ptr, ptr %28, align 8
  invoke void %29(ptr noundef nonnull align 8 dereferenceable(72) %0, ptr noundef %26)
          to label %30 unwind label %31

30:                                               ; preds = %25
  invoke void @__cxa_end_catch()
          to label %_ZN16check_sat_result18scoped_solver_timeD2Ev.exit unwind label %42

31:                                               ; preds = %20, %41, %33, %25
  %32 = landingpad { ptr, i32 }
          cleanup
  invoke void @__cxa_end_catch()
          to label %50 unwind label %51

33:                                               ; preds = %_ZN11ast_manager3incEv.exit
  %34 = load ptr, ptr %22, align 8, !tbaa !3
  %35 = getelementptr inbounds nuw i8, ptr %34, i64 16
  %36 = load ptr, ptr %35, align 8
  %37 = tail call noundef ptr %36(ptr noundef nonnull align 8 dereferenceable(8) %22) #25
  %38 = load ptr, ptr %0, align 8, !tbaa !3
  %39 = getelementptr inbounds nuw i8, ptr %38, i64 56
  %40 = load ptr, ptr %39, align 8
  invoke void %40(ptr noundef nonnull align 8 dereferenceable(72) %0, ptr noundef %37)
          to label %41 unwind label %31

41:                                               ; preds = %33
  invoke void @__cxa_rethrow() #27
          to label %54 unwind label %31

42:                                               ; preds = %30
  %43 = landingpad { ptr, i32 }
          cleanup
  br label %50

_ZN16check_sat_result18scoped_solver_timeD2Ev.exit: ; preds = %30, %4
  %.0 = phi i32 [ %14, %4 ], [ 0, %30 ]
  %44 = tail call i64 @_ZNSt6chrono3_V212steady_clock3nowEv() #25
  %45 = sub i64 %44, %9
  %46 = tail call i64 @_ZNSt6chrono3_V212steady_clock3nowEv() #25
  %47 = sdiv i64 %45, 1000000
  %48 = sitofp i64 %47 to double
  %49 = fdiv double %48, 1.000000e+03
  store double %49, ptr %10, align 8, !tbaa !57
  call void @llvm.lifetime.end.p0(i64 32, ptr nonnull %5) #25
  ret i32 %.0

50:                                               ; preds = %42, %31, %15
  %.merged = phi { ptr, i32 } [ %16, %15 ], [ %32, %31 ], [ %43, %42 ]
  call void @_ZN16check_sat_result18scoped_solver_timeD2Ev(ptr noundef nonnull align 8 dereferenceable(32) %5) #25
  call void @llvm.lifetime.end.p0(i64 32, ptr nonnull %5) #25
  resume { ptr, i32 } %.merged

51:                                               ; preds = %31
  %52 = landingpad { ptr, i32 }
          catch ptr null
  %53 = extractvalue { ptr, i32 } %52, 0
  tail call void @__clang_call_terminate(ptr %53) #26
  unreachable

54:                                               ; preds = %41
  unreachable
}